target datalayout = "e-m:e-p270:32:32-p271:32:32-p272:64:64-i64:64-i128:128-f80:128-n8:16:32:64-S128"
target triple = "x86_64-pc-linux-gnu"

%"class.open_spiel::solitaire::Card" = type { i32, i32, i32, i8, i32 }

; Function Attrs: mustprogress uwtable
define noundef i32 @_ZNK10open_spiel9solitaire4Card8GetIndexEv(ptr noundef nonnull align 4 dereferenceable(20) %0) #4 align 2 {
  %2 = alloca ptr, align 8
  store ptr %0, ptr %2, align 8
  %3 = load ptr, ptr %2, align 8
  %4 = getelementptr inbounds nuw %"class.open_spiel::solitaire::Card", ptr %3, i32 0, i32 3
  %5 = load i8, ptr %4, align 4
  %6 = trunc i8 %5 to i1
  br i1 %6, label %7, label %8

7:                                                ; preds = %1
  br label %14

8:                                                ; preds = %1
  %9 = getelementptr inbounds nuw %"class.open_spiel::solitaire::Card", ptr %3, i32 0, i32 0
  %10 = load i32, ptr %9, align 4
  %11 = getelementptr inbounds nuw %"class.open_spiel::solitaire::Card", ptr %3, i32 0, i32 1
  %12 = load i32, ptr %11, align 4
  %13 = call noundef i32 @_ZN10open_spiel9solitaire12GetCardIndexENS0_8RankTypeENS0_8SuitTypeE(i32 noundef %10, i32 noundef %12)
  br label %14

14:                                               ; preds = %8, %7
  %15 = phi i32 [ 99, %7 ], [ %13, %8 ]
  ret i32 %15
}