; Function Attrs: mustprogress uwtable
define noundef i32 @_ZNK10open_spiel9solitaire4Card8GetIndexEv(ptr nocapture noundef nonnull readonly align 4 dereferenceable(20) %0) local_unnamed_addr #3 align 2 {
  %2 = getelementptr inbounds nuw i8, ptr %0, i64 12
  %3 = load i8, ptr %2, align 4
  %4 = trunc i8 %3 to i1
  br i1 %4, label %10, label %5

5:                                                ; preds = %1
  %6 = load i32, ptr %0, align 4
  %7 = getelementptr inbounds nuw i8, ptr %0, i64 4
  %8 = load i32, ptr %7, align 4
  %9 = tail call noundef i32 @_ZN10open_spiel9solitaire12GetCardIndexENS0_8RankTypeENS0_8SuitTypeE(i32 noundef %6, i32 noundef %8)
  br label %10

10:                                               ; preds = %1, %5
  %11 = phi i32 [ %9, %5 ], [ 99, %1 ]
  ret i32 %11
}